Certificate:
    Data:
        Version: 3 (0x2)
        Serial Number: 1 (0x1)
        Signature Algorithm: sha1WithRSAEncryption
        Issuer: C=ES, ST=Zaragoza, L=Zaragoza, O=agacias Ltd, OU=devel dept, CN=Alberto Gacias Mateo/emailAddress=alberto@migasfree.org
        Validity
            Not Before: Apr 16 21:26:42 2011 GMT
            Not After : Oct 13 21:26:42 2011 GMT
        Subject: C=ES, ST=Zaragoza, O=agacias Ltd, OU=devel dept, CN=www.agacias.com
        Subject Public Key Info:
            Public Key Algorithm: rsaEncryption
            RSA Public Key: (1024 bit)
                Modulus (1024 bit):
                    00:dc:ed:cf:b5:68:01:e3:06:1e:c3:e2:ff:ef:d9:
                    b9:b4:57:df:01:be:8f:c0:ad:83:23:45:b5:4b:02:
                    ee:31:a8:b9:53:44:fb:03:24:c5:35:c9:0e:a7:37:
                    6c:f0:ea:d3:91:11:84:a4:1c:82:c7:6c:55:06:f3:
                    e2:29:ea:c7:eb:c5:6b:cb:26:db:e7:1d:39:69:e6:
                    af:ad:52:a9:6f:dc:0d:34:87:4a:87:31:dd:53:55:
                    76:74:70:73:6c:5d:bc:8c:8b:93:ba:9e:84:61:c7:
                    1b:38:f4:a3:57:99:06:69:3c:5b:8b:3f:a6:32:6f:
                    e4:1c:6b:81:d3:8f:cf:ae:7b
                Exponent: 65537 (0x10001)
        X509v3 extensions:
            X509v3 Basic Constraints: 
                CA:FALSE
            Netscape Comment: 
                OpenSSL Generated Certificate
            X509v3 Subject Key Identifier: 
                98:1E:58:54:B4:4C:32:24:C3:E2:5F:92:1A:30:9A:0F:F3:3F:61:6D
            X509v3 Authority Key Identifier: 
                keyid:37:0A:1D:16:3B:8B:0D:BD:2E:00:69:58:D6:53:14:3F:A2:8F:19:2A

    Signature Algorithm: sha1WithRSAEncryption
        55:c8:e5:59:28:b0:e6:c1:be:58:48:5c:8a:ca:0d:18:38:1b:
        72:1e:2e:52:b4:63:87:cc:da:be:d1:b3:3d:d4:9d:41:8b:6b:
        c0:4d:65:a9:eb:07:39:f5:3b:e7:43:0b:40:7b:6f:3d:50:e8:
        2e:f8:9a:62:08:46:d4:f7:22:96:70:61:1a:6e:9e:97:c9:f6:
        4b:17:08:39:eb:06:fc:31:79:a2:7a:bb:fd:b7:e2:0d:5a:37:
        f8:94:33:ce:64:c5:60:bc:5c:ed:79:6c:9f:e5:37:c1:61:80:
        3d:fe:fb:2a:d8:67:22:a4:ef:3e:5b:47:1f:2c:c2:47:77:60:
        96:9a:d3:06:d2:a0:89:07:2f:a4:f6:1a:e0:53:42:28:39:c9:
        f6:f6:b2:00:aa:96:a0:84:a5:8d:03:ce:f6:d1:e6:17:71:07:
        52:06:db:72:bb:4c:93:2d:c9:a7:be:72:24:f3:6c:dd:4d:1c:
        0d:e4:74:98:ea:d8:e2:96:dc:d8:80:13:29:26:38:43:2f:f9:
        9e:e5:a5:8c:9e:16:9b:46:44:71:b4:f0:98:a5:fd:c1:e7:a0:
        07:44:cb:f6:47:87:0d:f0:57:d0:ad:bb:11:ab:af:21:ce:47:
        ce:a1:0d:fa:4b:86:81:02:05:38:7a:28:39:41:42:5f:6f:ba:
        ea:9c:7e:4d
-----BEGIN CERTIFICATE-----
MIIDezCCAmOgAwIBAgIBATANBgkqhkiG9w0BAQUFADCBozELMAkGA1UEBhMCRVMx
ETAPBgNVBAgTCFphcmFnb3phMREwDwYDVQQHEwhaYXJhZ296YTEUMBIGA1UEChML
YWdhY2lhcyBMdGQxEzARBgNVBAsTCmRldmVsIGRlcHQxHTAbBgNVBAMTFEFsYmVy
dG8gR2FjaWFzIE1hdGVvMSQwIgYJKoZIhvcNAQkBFhVhbGJlcnRvQG1pZ2FzZnJl
ZS5vcmcwHhcNMTEwNDE2MjEyNjQyWhcNMTExMDEzMjEyNjQyWjBlMQswCQYDVQQG
EwJFUzERMA8GA1UECBMIWmFyYWdvemExFDASBgNVBAoTC2FnYWNpYXMgTHRkMRMw
EQYDVQQLEwpkZXZlbCBkZXB0MRgwFgYDVQQDEw93d3cuYWdhY2lhcy5jb20wgZ8w
DQYJKoZIhvcNAQEBBQADgY0AMIGJAoGBANztz7VoAeMGHsPi/+/ZubRX3wG+j8Ct
gyNFtUsC7jGouVNE+wMkxTXJDqc3bPDq05ERhKQcgsdsVQbz4inqx+vFa8sm2+cd
OWnmr61SqW/cDTSHSocx3VNVdnRwc2xdvIyLk7qehGHHGzj0o1eZBmk8W4s/pjJv
5BxrgdOPz657AgMBAAGjezB5MAkGA1UdEwQCMAAwLAYJYIZIAYb4QgENBB8WHU9w
ZW5TU0wgR2VuZXJhdGVkIENlcnRpZmljYXRlMB0GA1UdDgQWBBSYHlhUtEwyJMPi
X5IaMJoP8z9hbTAfBgNVHSMEGDAWgBQ3Ch0WO4sNvS4AaVjWUxQ/oo8ZKjANBgkq
hkiG9w0BAQUFAAOCAQEAVcjlWSiw5sG+WEhcisoNGDgbch4uUrRjh8zavtGzPdSd
QYtrwE1lqesHOfU750MLQHtvPVDoLviaYghG1PcilnBhGm6el8n2SxcIOesG/DF5
onq7/bfiDVo3+JQzzmTFYLxc7Xlsn+U3wWGAPf77KthnIqTvPltHHyzCR3dglprT
BtKgiQcvpPYa4FNCKDnJ9vayAKqWoISljQPO9tHmF3EHUgbbcrtMky3Jp75yJPNs
3U0cDeR0mOrY4pbc2IATKSY4Qy/5nuWljJ4Wm0ZEcbTwmKX9weegB0TL9keHDfBX
0K27EauvIc5HzqEN+kuGgQIFOHooOUFCX2+66px+TQ==
-----END CERTIFICATE-----
